; ModuleID = 'probe6.b7e0ee94-cgu.0'
source_filename = "probe6.b7e0ee94-cgu.0"
target datalayout = "e-m:o-p270:32:32-p271:32:32-p272:64:64-i64:64-f80:128-n8:16:32:64-S128"
target triple = "x86_64-apple-macosx10.7.0"

@alloc3 = private unnamed_addr constant <{ [75 x i8] }> <{ [75 x i8] c"/rustc/9a7cc6c32f1a690f86827e4724bcda85e506ef35/library/core/src/num/mod.rs" }>, align 1
@alloc4 = private unnamed_addr constant <{ ptr, [16 x i8] }> <{ ptr @alloc3, [16 x i8] c"K\00\00\00\00\00\00\00\8D\03\00\00\05\00\00\00" }>, align 8
@str.0 = internal constant [25 x i8] c"attempt to divide by zero"

; probe6::probe
; Function Attrs: uwtable
define void @_ZN6probe65probe17h4e768d096f371e67E() unnamed_addr #0 {
start:
  %0 = call i1 @llvm.expect.i1(i1 false, i1 false)
  br i1 %0, label %panic.i, label %"_ZN4core3num21_$LT$impl$u20$u32$GT$10div_euclid17heddb12487dd8495fE.exit"

panic.i:                                          ; preds = %start
; call core::panicking::panic
  call void @_ZN4core9panicking5panic17hb777256ce403f5a7E(ptr align 1 @str.0, i64 25, ptr align 8 @alloc4) #3
  unreachable

"_ZN4core3num21_$LT$impl$u20$u32$GT$10div_euclid17heddb12487dd8495fE.exit": ; preds = %start
  ret void
}

; Function Attrs: nocallback nofree nosync nounwind readnone willreturn
declare i1 @llvm.expect.i1(i1, i1) #1

; core::panicking::panic
; Function Attrs: cold noinline noreturn uwtable
declare void @_ZN4core9panicking5panic17hb777256ce403f5a7E(ptr align 1, i64, ptr align 8) unnamed_addr #2

attributes #0 = { uwtable "frame-pointer"="all" "probe-stack"="__rust_probestack" "target-cpu"="core2" }
attributes #1 = { nocallback nofree nosync nounwind readnone willreturn }
attributes #2 = { cold noinline noreturn uwtable "frame-pointer"="all" "probe-stack"="__rust_probestack" "target-cpu"="core2" }
attributes #3 = { noreturn }

!llvm.module.flags = !{!0}

!0 = !{i32 7, !"PIC Level", i32 2}
